target datalayout = "e-m:e-p270:32:32-p271:32:32-p272:64:64-i64:64-i128:128-f80:128-n8:16:32:64-S128"
target triple = "x86_64-pc-linux-gnu"

%struct.sigaction = type { %union.anon.806, %struct.__sigset_t, i32, ptr }
%union.anon.806 = type { ptr }
%struct.__sigset_t = type { [16 x i64] }

; Function Attrs: nounwind uwtable
define dso_local ptr @PyOS_setsig(i32 noundef %0, ptr noundef %1) #1 {
  %3 = alloca ptr, align 8
  %4 = alloca i32, align 4
  %5 = alloca ptr, align 8
  %6 = alloca %struct.sigaction, align 8
  %7 = alloca %struct.sigaction, align 8
  %8 = alloca i32, align 4
  store i32 %0, ptr %4, align 4, !tbaa !4
  store ptr %1, ptr %5, align 8, !tbaa !224
  call void @llvm.lifetime.start.p0(i64 152, ptr %6) #14
  call void @llvm.lifetime.start.p0(i64 152, ptr %7) #14
  %9 = load ptr, ptr %5, align 8, !tbaa !224
  %10 = getelementptr inbounds nuw %struct.sigaction, ptr %6, i32 0, i32 0
  store ptr %9, ptr %10, align 8, !tbaa !181
  %11 = getelementptr inbounds nuw %struct.sigaction, ptr %6, i32 0, i32 1
  %12 = call i32 @sigemptyset(ptr noundef %11) #14
  %13 = getelementptr inbounds nuw %struct.sigaction, ptr %6, i32 0, i32 2
  store i32 134217728, ptr %13, align 8, !tbaa !254
  %14 = load i32, ptr %4, align 4, !tbaa !4
  %15 = call i32 @sigaction(i32 noundef %14, ptr noundef %6, ptr noundef %7) #14
  %16 = icmp eq i32 %15, -1
  br i1 %16, label %17, label %18

17:                                               ; preds = %2
  store ptr inttoptr (i64 -1 to ptr), ptr %3, align 8
  store i32 1, ptr %8, align 4
  br label %21

18:                                               ; preds = %2
  %19 = getelementptr inbounds nuw %struct.sigaction, ptr %7, i32 0, i32 0
  %20 = load ptr, ptr %19, align 8, !tbaa !181
  store ptr %20, ptr %3, align 8
  store i32 1, ptr %8, align 4
  br label %21

21:                                               ; preds = %18, %17
  call void @llvm.lifetime.end.p0(i64 152, ptr %7) #14
  call void @llvm.lifetime.end.p0(i64 152, ptr %6) #14
  %22 = load ptr, ptr %3, align 8
  ret ptr %22
}