; Function Attrs: nounwind uwtable
define dso_local ptr @PyOS_setsig(i32 noundef %0, ptr noundef %1) local_unnamed_addr #1 {
  %3 = alloca %struct.sigaction, align 8
  %4 = alloca %struct.sigaction, align 8
  call void @llvm.lifetime.start.p0(i64 152, ptr nonnull %3) #23
  call void @llvm.lifetime.start.p0(i64 152, ptr nonnull %4) #23
  store ptr %1, ptr %3, align 8, !tbaa !176
  %5 = getelementptr inbounds nuw i8, ptr %3, i64 8
  %6 = call i32 @sigemptyset(ptr noundef nonnull %5) #23
  %7 = getelementptr inbounds nuw i8, ptr %3, i64 136
  store i32 134217728, ptr %7, align 8, !tbaa !309
  %8 = call i32 @sigaction(i32 noundef %0, ptr noundef nonnull %3, ptr noundef nonnull %4) #23
  %9 = icmp eq i32 %8, -1
  %10 = load ptr, ptr %4, align 8
  %.0 = select i1 %9, ptr inttoptr (i64 -1 to ptr), ptr %10
  call void @llvm.lifetime.end.p0(i64 152, ptr nonnull %4) #23
  call void @llvm.lifetime.end.p0(i64 152, ptr nonnull %3) #23
  ret ptr %.0
}